target datalayout = "e-m:e-p270:32:32-p271:32:32-p272:64:64-i64:64-i128:128-f80:128-n8:16:32:64-S128"
target triple = "x86_64-pc-linux-gnu"

%"class.std::__cxx11::basic_string" = type { %"struct.std::__cxx11::basic_string<char>::_Alloc_hider", i64, %union.anon }
%"struct.std::__cxx11::basic_string<char>::_Alloc_hider" = type { ptr }
%union.anon = type { i64, [8 x i8] }
%"class.std::allocator.26" = type { i8 }
%"class.cv::Matx" = type { [4 x double] }
%"struct.std::array.93" = type { [4 x i32] }

@.str.2 = private unnamed_addr constant [138 x i8] c"generated/home/dtcxzyw/WorkSpace/Projects/compilers/llvm-opt-benchmark/bench/opencv/opencv/modules/gapi/src/backends/fluid/gfluidcore.cpp\00", align 1
@.str.27 = private unnamed_addr constant [55 x i8] c"Bitwise operations make sense with integral types only\00", align 1
@__func__._ZN2cv4gapi5fluidL23convertScalarForBitwiseERKNS_7Scalar_IdEE = private unnamed_addr constant [24 x i8] c"convertScalarForBitwise\00", align 1

; Function Attrs: mustprogress nounwind uwtable
define linkonce_odr hidden void @_ZNSt15__new_allocatorIcE10deallocateEPcm(ptr noundef nonnull align 1 dereferenceable(1) %0, ptr noundef %1, i64 noundef %2) #7 comdat align 2 {
  %4 = alloca ptr, align 8
  %5 = alloca ptr, align 8
  %6 = alloca i64, align 8
  store ptr %0, ptr %4, align 8, !tbaa !90
  store ptr %1, ptr %5, align 8, !tbaa !68
  store i64 %2, ptr %6, align 8, !tbaa !141
  %7 = load ptr, ptr %5, align 8, !tbaa !68
  call void @_ZdlPv(ptr noundef %7) #26
  ret void
}

; Function Attrs: mustprogress nounwind uwtable
define linkonce_odr hidden noundef ptr @_ZNSt19__ptr_traits_ptr_toIPKcS0_Lb0EE10pointer_toERS0_(ptr noundef nonnull align 1 dereferenceable(1) %0) #7 comdat align 2 {
  %2 = alloca ptr, align 8
  store ptr %0, ptr %2, align 8, !tbaa !68
  %3 = load ptr, ptr %2, align 8, !tbaa !68
  ret ptr %3
}

; Function Attrs: mustprogress uwtable
define linkonce_odr hidden void @_ZNSt16allocator_traitsISaIcEE10deallocateERS0_Pcm(ptr noundef nonnull align 1 dereferenceable(1) %0, ptr noundef %1, i64 noundef %2) #4 comdat align 2 {
  %4 = alloca ptr, align 8
  %5 = alloca ptr, align 8
  %6 = alloca i64, align 8
  store ptr %0, ptr %4, align 8, !tbaa !86
  store ptr %1, ptr %5, align 8, !tbaa !68
  store i64 %2, ptr %6, align 8, !tbaa !141
  %7 = load ptr, ptr %4, align 8, !tbaa !86
  %8 = load ptr, ptr %5, align 8, !tbaa !68
  %9 = load i64, ptr %6, align 8, !tbaa !141
  call void @_ZNSt15__new_allocatorIcE10deallocateEPcm(ptr noundef nonnull align 1 dereferenceable(1) %7, ptr noundef %8, i64 noundef %9)
  ret void
}

; Function Attrs: mustprogress nounwind uwtable
define available_externally noundef nonnull align 1 dereferenceable(1) ptr @_ZNSt7__cxx1112basic_stringIcSt11char_traitsIcESaIcEE16_M_get_allocatorEv(ptr noundef nonnull align 8 dereferenceable(32) %0) #7 align 2 {
  %2 = alloca ptr, align 8
  store ptr %0, ptr %2, align 8, !tbaa !88
  %3 = load ptr, ptr %2, align 8
  %4 = getelementptr inbounds nuw %"class.std::__cxx11::basic_string", ptr %3, i32 0, i32 0
  ret ptr %4
}

; Function Attrs: mustprogress nounwind uwtable
define available_externally noundef ptr @_ZNKSt7__cxx1112basic_stringIcSt11char_traitsIcESaIcEE13_M_local_dataEv(ptr noundef nonnull align 8 dereferenceable(32) %0) #7 align 2 {
  %2 = alloca ptr, align 8
  store ptr %0, ptr %2, align 8, !tbaa !88
  %3 = load ptr, ptr %2, align 8
  %4 = getelementptr inbounds nuw %"class.std::__cxx11::basic_string", ptr %3, i32 0, i32 2
  %5 = getelementptr inbounds [16 x i8], ptr %4, i64 0, i64 0
  %6 = call noundef ptr @_ZNSt19__ptr_traits_ptr_toIPKcS0_Lb0EE10pointer_toERS0_(ptr noundef nonnull align 1 dereferenceable(1) %5) #3
  ret ptr %6
}

; Function Attrs: mustprogress nounwind uwtable
define available_externally noundef ptr @_ZNKSt7__cxx1112basic_stringIcSt11char_traitsIcESaIcEE7_M_dataEv(ptr noundef nonnull align 8 dereferenceable(32) %0) #7 align 2 {
  %2 = alloca ptr, align 8
  store ptr %0, ptr %2, align 8, !tbaa !88
  %3 = load ptr, ptr %2, align 8
  %4 = getelementptr inbounds nuw %"class.std::__cxx11::basic_string", ptr %3, i32 0, i32 0
  %5 = getelementptr inbounds nuw %"struct.std::__cxx11::basic_string<char>::_Alloc_hider", ptr %4, i32 0, i32 0
  %6 = load ptr, ptr %5, align 8, !tbaa !388
  ret ptr %6
}

; Function Attrs: mustprogress nounwind uwtable
define available_externally void @_ZNSt7__cxx1112basic_stringIcSt11char_traitsIcESaIcEE10_M_destroyEm(ptr noundef nonnull align 8 dereferenceable(32) %0, i64 noundef %1) #7 align 2 personality ptr @__gxx_personality_v0 {
  %3 = alloca ptr, align 8
  %4 = alloca i64, align 8
  %5 = alloca ptr, align 8
  %6 = alloca i32, align 4
  store ptr %0, ptr %3, align 8, !tbaa !88
  store i64 %1, ptr %4, align 8, !tbaa !141
  %7 = load ptr, ptr %3, align 8
  %8 = invoke noundef nonnull align 1 dereferenceable(1) ptr @_ZNSt7__cxx1112basic_stringIcSt11char_traitsIcESaIcEE16_M_get_allocatorEv(ptr noundef nonnull align 8 dereferenceable(32) %7)
          to label %9 unwind label %14

9:                                                ; preds = %2
  %10 = call noundef ptr @_ZNKSt7__cxx1112basic_stringIcSt11char_traitsIcESaIcEE7_M_dataEv(ptr noundef nonnull align 8 dereferenceable(32) %7)
  %11 = load i64, ptr %4, align 8, !tbaa !141
  %12 = add i64 %11, 1
  invoke void @_ZNSt16allocator_traitsISaIcEE10deallocateERS0_Pcm(ptr noundef nonnull align 1 dereferenceable(1) %8, ptr noundef %10, i64 noundef %12)
          to label %13 unwind label %14

13:                                               ; preds = %9
  ret void

14:                                               ; preds = %9, %2
  %15 = landingpad { ptr, i32 }
          filter [0 x ptr] zeroinitializer
  %16 = extractvalue { ptr, i32 } %15, 0
  store ptr %16, ptr %5, align 8
  %17 = extractvalue { ptr, i32 } %15, 1
  store i32 %17, ptr %6, align 4
  br label %18

18:                                               ; preds = %14
  %19 = load ptr, ptr %5, align 8
  call void @__cxa_call_unexpected(ptr %19) #27
  unreachable
}

; Function Attrs: mustprogress uwtable
define available_externally noundef zeroext i1 @_ZNKSt7__cxx1112basic_stringIcSt11char_traitsIcESaIcEE11_M_is_localEv(ptr noundef nonnull align 8 dereferenceable(32) %0) #4 align 2 {
  %2 = alloca i1, align 1
  %3 = alloca ptr, align 8
  store ptr %0, ptr %3, align 8, !tbaa !88
  %4 = load ptr, ptr %3, align 8
  %5 = call noundef ptr @_ZNKSt7__cxx1112basic_stringIcSt11char_traitsIcESaIcEE7_M_dataEv(ptr noundef nonnull align 8 dereferenceable(32) %4)
  %6 = call noundef ptr @_ZNKSt7__cxx1112basic_stringIcSt11char_traitsIcESaIcEE13_M_local_dataEv(ptr noundef nonnull align 8 dereferenceable(32) %4)
  %7 = icmp eq ptr %5, %6
  br i1 %7, label %8, label %14

8:                                                ; preds = %1
  %9 = getelementptr inbounds nuw %"class.std::__cxx11::basic_string", ptr %4, i32 0, i32 1
  %10 = load i64, ptr %9, align 8, !tbaa !393
  %11 = icmp ugt i64 %10, 15
  br i1 %11, label %12, label %13

12:                                               ; preds = %8
  unreachable

13:                                               ; preds = %8
  store i1 true, ptr %2, align 1
  br label %15

14:                                               ; preds = %1
  store i1 false, ptr %2, align 1
  br label %15

15:                                               ; preds = %14, %13
  %16 = load i1, ptr %2, align 1
  ret i1 %16
}

; Function Attrs: noinline noreturn nounwind uwtable
define linkonce_odr hidden void @__clang_call_terminate(ptr noundef %0) #14 comdat {
  %2 = call ptr @__cxa_begin_catch(ptr %0) #3
  call void @_ZSt9terminatev() #28
  unreachable
}

; Function Attrs: mustprogress uwtable
define available_externally void @_ZNSt7__cxx1112basic_stringIcSt11char_traitsIcESaIcEE10_M_disposeEv(ptr noundef nonnull align 8 dereferenceable(32) %0) #4 align 2 {
  %2 = alloca ptr, align 8
  store ptr %0, ptr %2, align 8, !tbaa !88
  %3 = load ptr, ptr %2, align 8
  %4 = call noundef zeroext i1 @_ZNKSt7__cxx1112basic_stringIcSt11char_traitsIcESaIcEE11_M_is_localEv(ptr noundef nonnull align 8 dereferenceable(32) %3)
  br i1 %4, label %8, label %5

5:                                                ; preds = %1
  %6 = getelementptr inbounds nuw %"class.std::__cxx11::basic_string", ptr %3, i32 0, i32 2
  %7 = load i64, ptr %6, align 8, !tbaa !172
  call void @_ZNSt7__cxx1112basic_stringIcSt11char_traitsIcESaIcEE10_M_destroyEm(ptr noundef nonnull align 8 dereferenceable(32) %3, i64 noundef %7) #3
  br label %8

8:                                                ; preds = %5, %1
  ret void
}

; Function Attrs: mustprogress nounwind uwtable
define linkonce_odr hidden void @_ZNSt15__new_allocatorIcEC2Ev(ptr noundef nonnull align 1 dereferenceable(1) %0) unnamed_addr #7 comdat align 2 {
  %2 = alloca ptr, align 8
  store ptr %0, ptr %2, align 8, !tbaa !90
  ret void
}

; Function Attrs: mustprogress nounwind uwtable
define linkonce_odr hidden noundef nonnull align 4 dereferenceable(4) ptr @_ZNSt14__array_traitsIiLm4EE6_S_refERA4_Kim(ptr noundef nonnull align 4 dereferenceable(16) %0, i64 noundef %1) #7 comdat align 2 {
  %3 = alloca ptr, align 8
  %4 = alloca i64, align 8
  store ptr %0, ptr %3, align 8, !tbaa !10
  store i64 %1, ptr %4, align 8, !tbaa !141
  %5 = load ptr, ptr %3, align 8, !tbaa !10
  %6 = load i64, ptr %4, align 8, !tbaa !141
  %7 = getelementptr inbounds nuw [4 x i32], ptr %5, i64 0, i64 %6
  ret ptr %7
}

; Function Attrs: mustprogress nounwind uwtable
define linkonce_odr hidden void @_ZNSt15__new_allocatorIcED2Ev(ptr noundef nonnull align 1 dereferenceable(1) %0) unnamed_addr #7 comdat align 2 {
  %2 = alloca ptr, align 8
  store ptr %0, ptr %2, align 8, !tbaa !90
  ret void
}

; Function Attrs: mustprogress nounwind uwtable
define available_externally void @_ZNSt7__cxx1112basic_stringIcSt11char_traitsIcESaIcEED2Ev(ptr noundef nonnull align 8 dereferenceable(32) %0) unnamed_addr #7 align 2 personality ptr @__gxx_personality_v0 {
  %2 = alloca ptr, align 8
  store ptr %0, ptr %2, align 8, !tbaa !88
  %3 = load ptr, ptr %2, align 8
  invoke void @_ZNSt7__cxx1112basic_stringIcSt11char_traitsIcESaIcEE10_M_disposeEv(ptr noundef nonnull align 8 dereferenceable(32) %3)
          to label %4 unwind label %6

4:                                                ; preds = %1
  %5 = getelementptr inbounds nuw %"class.std::__cxx11::basic_string", ptr %3, i32 0, i32 0
  call void @_ZNSt15__new_allocatorIcED2Ev(ptr noundef nonnull align 8 dereferenceable(8) %5) #3
  ret void

6:                                                ; preds = %1
  %7 = landingpad { ptr, i32 }
          catch ptr null
  %8 = extractvalue { ptr, i32 } %7, 0
  call void @__clang_call_terminate(ptr %8) #28
  unreachable
}

; Function Attrs: mustprogress nounwind uwtable
define available_externally void @_ZNSaIcEC2Ev(ptr noundef nonnull align 1 dereferenceable(1) %0) unnamed_addr #7 align 2 {
  %2 = alloca ptr, align 8
  store ptr %0, ptr %2, align 8, !tbaa !86
  %3 = load ptr, ptr %2, align 8
  call void @_ZNSt15__new_allocatorIcEC2Ev(ptr noundef nonnull align 1 dereferenceable(1) %3) #3
  ret void
}

; Function Attrs: mustprogress nounwind uwtable
define linkonce_odr hidden noundef nonnull align 4 dereferenceable(4) ptr @_ZNSt5arrayIiLm4EEixEm(ptr noundef nonnull align 4 dereferenceable(16) %0, i64 noundef %1) #7 comdat align 2 {
  %3 = alloca ptr, align 8
  %4 = alloca i64, align 8
  store ptr %0, ptr %3, align 8, !tbaa !504
  store i64 %1, ptr %4, align 8, !tbaa !141
  %5 = load ptr, ptr %3, align 8
  %6 = getelementptr inbounds nuw %"struct.std::array.93", ptr %5, i32 0, i32 0
  %7 = load i64, ptr %4, align 8, !tbaa !141
  %8 = call noundef nonnull align 4 dereferenceable(4) ptr @_ZNSt14__array_traitsIiLm4EE6_S_refERA4_Kim(ptr noundef nonnull align 4 dereferenceable(16) %6, i64 noundef %7) #3
  ret ptr %8
}

; Function Attrs: inlinehint mustprogress nounwind uwtable
define linkonce_odr hidden noundef nonnull align 8 dereferenceable(8) ptr @_ZNK2cv3VecIdLi4EEixEi(ptr noundef nonnull align 8 dereferenceable(32) %0, i32 noundef %1) #5 comdat align 2 {
  %3 = alloca ptr, align 8
  %4 = alloca i32, align 4
  store ptr %0, ptr %3, align 8, !tbaa !506
  store i32 %1, ptr %4, align 4, !tbaa !3
  %5 = load ptr, ptr %3, align 8
  %6 = getelementptr inbounds nuw %"class.cv::Matx", ptr %5, i32 0, i32 0
  %7 = load i32, ptr %4, align 4, !tbaa !3
  %8 = sext i32 %7 to i64
  %9 = getelementptr inbounds [4 x double], ptr %6, i64 0, i64 %8
  ret ptr %9
}

; Function Attrs: mustprogress uwtable
define internal { i64, i64 } @_ZN2cv4gapi5fluidL23convertScalarForBitwiseERKNS_7Scalar_IdEE(ptr noundef nonnull align 8 dereferenceable(32) %0) #4 personality ptr @__gxx_personality_v0 {
  %2 = alloca %"struct.std::array.93", align 4
  %3 = alloca ptr, align 8
  %4 = alloca %"class.std::__cxx11::basic_string", align 8
  %5 = alloca %"class.std::allocator.26", align 1
  %6 = alloca ptr, align 8
  %7 = alloca i32, align 4
  store ptr %0, ptr %3, align 8, !tbaa !502
  %8 = getelementptr inbounds nuw %"struct.std::array.93", ptr %2, i32 0, i32 0
  %9 = load ptr, ptr %3, align 8, !tbaa !502
  %10 = call noundef nonnull align 8 dereferenceable(8) ptr @_ZNK2cv3VecIdLi4EEixEi(ptr noundef nonnull align 8 dereferenceable(32) %9, i32 noundef 0)
  %11 = load double, ptr %10, align 8, !tbaa !169
  %12 = fptosi double %11 to i32
  store i32 %12, ptr %8, align 4, !tbaa !3
  %13 = getelementptr inbounds i32, ptr %8, i64 1
  %14 = load ptr, ptr %3, align 8, !tbaa !502
  %15 = call noundef nonnull align 8 dereferenceable(8) ptr @_ZNK2cv3VecIdLi4EEixEi(ptr noundef nonnull align 8 dereferenceable(32) %14, i32 noundef 1)
  %16 = load double, ptr %15, align 8, !tbaa !169
  %17 = fptosi double %16 to i32
  store i32 %17, ptr %13, align 4, !tbaa !3
  %18 = getelementptr inbounds i32, ptr %8, i64 2
  %19 = load ptr, ptr %3, align 8, !tbaa !502
  %20 = call noundef nonnull align 8 dereferenceable(8) ptr @_ZNK2cv3VecIdLi4EEixEi(ptr noundef nonnull align 8 dereferenceable(32) %19, i32 noundef 2)
  %21 = load double, ptr %20, align 8, !tbaa !169
  %22 = fptosi double %21 to i32
  store i32 %22, ptr %18, align 4, !tbaa !3
  %23 = getelementptr inbounds i32, ptr %8, i64 3
  %24 = load ptr, ptr %3, align 8, !tbaa !502
  %25 = call noundef nonnull align 8 dereferenceable(8) ptr @_ZNK2cv3VecIdLi4EEixEi(ptr noundef nonnull align 8 dereferenceable(32) %24, i32 noundef 3)
  %26 = load double, ptr %25, align 8, !tbaa !169
  %27 = fptosi double %26 to i32
  store i32 %27, ptr %23, align 4, !tbaa !3
  %28 = load ptr, ptr %3, align 8, !tbaa !502
  %29 = call noundef nonnull align 8 dereferenceable(8) ptr @_ZNK2cv3VecIdLi4EEixEi(ptr noundef nonnull align 8 dereferenceable(32) %28, i32 noundef 0)
  %30 = load double, ptr %29, align 8, !tbaa !169
  %31 = call noundef nonnull align 4 dereferenceable(4) ptr @_ZNSt5arrayIiLm4EEixEm(ptr noundef nonnull align 4 dereferenceable(16) %2, i64 noundef 0) #3
  %32 = load i32, ptr %31, align 4, !tbaa !3
  %33 = sitofp i32 %32 to double
  %34 = fcmp oeq double %30, %33
  br i1 %34, label %35, label %59

35:                                               ; preds = %1
  %36 = load ptr, ptr %3, align 8, !tbaa !502
  %37 = call noundef nonnull align 8 dereferenceable(8) ptr @_ZNK2cv3VecIdLi4EEixEi(ptr noundef nonnull align 8 dereferenceable(32) %36, i32 noundef 1)
  %38 = load double, ptr %37, align 8, !tbaa !169
  %39 = call noundef nonnull align 4 dereferenceable(4) ptr @_ZNSt5arrayIiLm4EEixEm(ptr noundef nonnull align 4 dereferenceable(16) %2, i64 noundef 1) #3
  %40 = load i32, ptr %39, align 4, !tbaa !3
  %41 = sitofp i32 %40 to double
  %42 = fcmp oeq double %38, %41
  br i1 %42, label %43, label %59

43:                                               ; preds = %35
  %44 = load ptr, ptr %3, align 8, !tbaa !502
  %45 = call noundef nonnull align 8 dereferenceable(8) ptr @_ZNK2cv3VecIdLi4EEixEi(ptr noundef nonnull align 8 dereferenceable(32) %44, i32 noundef 2)
  %46 = load double, ptr %45, align 8, !tbaa !169
  %47 = call noundef nonnull align 4 dereferenceable(4) ptr @_ZNSt5arrayIiLm4EEixEm(ptr noundef nonnull align 4 dereferenceable(16) %2, i64 noundef 2) #3
  %48 = load i32, ptr %47, align 4, !tbaa !3
  %49 = sitofp i32 %48 to double
  %50 = fcmp oeq double %46, %49
  br i1 %50, label %51, label %59

51:                                               ; preds = %43
  %52 = load ptr, ptr %3, align 8, !tbaa !502
  %53 = call noundef nonnull align 8 dereferenceable(8) ptr @_ZNK2cv3VecIdLi4EEixEi(ptr noundef nonnull align 8 dereferenceable(32) %52, i32 noundef 3)
  %54 = load double, ptr %53, align 8, !tbaa !169
  %55 = call noundef nonnull align 4 dereferenceable(4) ptr @_ZNSt5arrayIiLm4EEixEm(ptr noundef nonnull align 4 dereferenceable(16) %2, i64 noundef 3) #3
  %56 = load i32, ptr %55, align 4, !tbaa !3
  %57 = sitofp i32 %56 to double
  %58 = fcmp oeq double %54, %57
  br i1 %58, label %71, label %59

59:                                               ; preds = %51, %43, %35, %1
  call void @llvm.lifetime.start.p0(i64 32, ptr %4) #3
  call void @llvm.lifetime.start.p0(i64 1, ptr %5) #3
  call void @_ZNSaIcEC2Ev(ptr noundef nonnull align 1 dereferenceable(1) %5) #3
  invoke void @_ZNSt7__cxx1112basic_stringIcSt11char_traitsIcESaIcEEC2EPKcRKS3_(ptr noundef nonnull align 8 dereferenceable(32) %4, ptr noundef @.str.27, ptr noundef nonnull align 1 dereferenceable(1) %5)
          to label %60 unwind label %62

60:                                               ; preds = %59
  invoke void @_ZN2cv5errorEiRKNSt7__cxx1112basic_stringIcSt11char_traitsIcESaIcEEEPKcS9_i(i32 noundef -5, ptr noundef nonnull align 8 dereferenceable(32) %4, ptr noundef @__func__._ZN2cv4gapi5fluidL23convertScalarForBitwiseERKNS_7Scalar_IdEE, ptr noundef @.str.2, i32 noundef 1411) #27
          to label %61 unwind label %66

61:                                               ; preds = %60
  unreachable

62:                                               ; preds = %59
  %63 = landingpad { ptr, i32 }
          cleanup
  %64 = extractvalue { ptr, i32 } %63, 0
  store ptr %64, ptr %6, align 8
  %65 = extractvalue { ptr, i32 } %63, 1
  store i32 %65, ptr %7, align 4
  br label %70

66:                                               ; preds = %60
  %67 = landingpad { ptr, i32 }
          cleanup
  %68 = extractvalue { ptr, i32 } %67, 0
  store ptr %68, ptr %6, align 8
  %69 = extractvalue { ptr, i32 } %67, 1
  store i32 %69, ptr %7, align 4
  call void @_ZNSt7__cxx1112basic_stringIcSt11char_traitsIcESaIcEED2Ev(ptr noundef nonnull align 8 dereferenceable(32) %4) #3
  br label %70

70:                                               ; preds = %66, %62
  call void @_ZNSt15__new_allocatorIcED2Ev(ptr noundef nonnull align 1 dereferenceable(1) %5) #3
  call void @llvm.lifetime.end.p0(i64 1, ptr %5) #3
  call void @llvm.lifetime.end.p0(i64 32, ptr %4) #3
  br label %74

71:                                               ; preds = %51
  %72 = getelementptr inbounds nuw %"struct.std::array.93", ptr %2, i32 0, i32 0
  %73 = load { i64, i64 }, ptr %72, align 4
  ret { i64, i64 } %73

74:                                               ; preds = %70
  %75 = load ptr, ptr %6, align 8
  %76 = load i32, ptr %7, align 4
  %77 = insertvalue { ptr, i32 } poison, ptr %75, 0
  %78 = insertvalue { ptr, i32 } %77, i32 %76, 1
  resume { ptr, i32 } %78
}