; Function Attrs: mustprogress uwtable
define internal fastcc { i64, i64 } @_ZN2cv4gapi5fluidL23convertScalarForBitwiseERKNS_7Scalar_IdEE(ptr noundef nonnull readonly align 8 captures(none) dereferenceable(32) %0) unnamed_addr #3 personality ptr @__gxx_personality_v0 {
  %2 = alloca %"class.std::__cxx11::basic_string", align 8
  %3 = alloca %"class.std::allocator.26", align 1
  %4 = load double, ptr %0, align 8, !tbaa !222
  %5 = fptosi double %4 to i32
  %6 = getelementptr inbounds nuw i8, ptr %0, i64 8
  %7 = load double, ptr %6, align 8, !tbaa !222
  %8 = fptosi double %7 to i32
  %9 = getelementptr inbounds nuw i8, ptr %0, i64 16
  %10 = load double, ptr %9, align 8, !tbaa !222
  %11 = fptosi double %10 to i32
  %12 = getelementptr inbounds nuw i8, ptr %0, i64 24
  %13 = load double, ptr %12, align 8, !tbaa !222
  %14 = fptosi double %13 to i32
  %15 = sitofp i32 %5 to double
  %16 = fcmp oeq double %4, %15
  %17 = sitofp i32 %8 to double
  %18 = fcmp oeq double %7, %17
  %or.cond = select i1 %16, i1 %18, i1 false
  %19 = sitofp i32 %11 to double
  %20 = fcmp oeq double %10, %19
  %or.cond13 = select i1 %or.cond, i1 %20, i1 false
  %21 = sitofp i32 %14 to double
  %22 = fcmp oeq double %13, %21
  %or.cond15 = select i1 %or.cond13, i1 %22, i1 false
  br i1 %or.cond15, label %33, label %23

23:                                               ; preds = %1
  call void @llvm.lifetime.start.p0(i64 32, ptr nonnull %2) #27
  call void @llvm.lifetime.start.p0(i64 1, ptr nonnull %3) #27
  call void @_ZNSt7__cxx1112basic_stringIcSt11char_traitsIcESaIcEEC2EPKcRKS3_(ptr noundef nonnull align 8 dereferenceable(32) %2, ptr noundef nonnull @.str.27, ptr noundef nonnull align 1 dereferenceable(1) %3)
  invoke void @_ZN2cv5errorEiRKNSt7__cxx1112basic_stringIcSt11char_traitsIcESaIcEEEPKcS9_i(i32 noundef -5, ptr noundef nonnull align 8 dereferenceable(32) %2, ptr noundef nonnull @__func__._ZN2cv4gapi5fluidL23convertScalarForBitwiseERKNS_7Scalar_IdEE, ptr noundef nonnull @.str.2, i32 noundef 1411) #31
          to label %24 unwind label %25

24:                                               ; preds = %23
  unreachable

25:                                               ; preds = %23
  %26 = landingpad { ptr, i32 }
          cleanup
  %27 = load ptr, ptr %2, align 8, !tbaa !23
  %28 = getelementptr inbounds nuw i8, ptr %2, i64 16
  %29 = icmp eq ptr %27, %28
  br i1 %29, label %_ZNKSt7__cxx1112basic_stringIcSt11char_traitsIcESaIcEE11_M_is_localEv.exit.thread.i.i, label %_ZNKSt7__cxx1112basic_stringIcSt11char_traitsIcESaIcEE11_M_is_localEv.exit.i.i

_ZNKSt7__cxx1112basic_stringIcSt11char_traitsIcESaIcEE11_M_is_localEv.exit.thread.i.i: ; preds = %25
  %30 = getelementptr inbounds nuw i8, ptr %2, i64 8
  %31 = load i64, ptr %30, align 8, !tbaa !27
  %32 = icmp ult i64 %31, 16
  call void @llvm.assume(i1 %32)
  br label %_ZNSt7__cxx1112basic_stringIcSt11char_traitsIcESaIcEED2Ev.exit

_ZNKSt7__cxx1112basic_stringIcSt11char_traitsIcESaIcEE11_M_is_localEv.exit.i.i: ; preds = %25
  call void @_ZdlPv(ptr noundef %27) #29
  br label %_ZNSt7__cxx1112basic_stringIcSt11char_traitsIcESaIcEED2Ev.exit

_ZNSt7__cxx1112basic_stringIcSt11char_traitsIcESaIcEED2Ev.exit: ; preds = %_ZNKSt7__cxx1112basic_stringIcSt11char_traitsIcESaIcEE11_M_is_localEv.exit.i.i, %_ZNKSt7__cxx1112basic_stringIcSt11char_traitsIcESaIcEE11_M_is_localEv.exit.thread.i.i
  call void @llvm.lifetime.end.p0(i64 1, ptr nonnull %3) #27
  call void @llvm.lifetime.end.p0(i64 32, ptr nonnull %2) #27
  resume { ptr, i32 } %26

33:                                               ; preds = %1
  %.sroa.3.0.insert.ext = zext i32 %8 to i64
  %.sroa.3.0.insert.shift = shl nuw i64 %.sroa.3.0.insert.ext, 32
  %.sroa.0.0.insert.ext = zext i32 %5 to i64
  %.sroa.0.0.insert.insert = or disjoint i64 %.sroa.3.0.insert.shift, %.sroa.0.0.insert.ext
  %.fca.0.insert = insertvalue { i64, i64 } poison, i64 %.sroa.0.0.insert.insert, 0
  %.sroa.8.8.insert.ext = zext i32 %14 to i64
  %.sroa.8.8.insert.shift = shl nuw i64 %.sroa.8.8.insert.ext, 32
  %.sroa.5.8.insert.ext = zext i32 %11 to i64
  %.sroa.5.8.insert.insert = or disjoint i64 %.sroa.8.8.insert.shift, %.sroa.5.8.insert.ext
  %.fca.1.insert = insertvalue { i64, i64 } %.fca.0.insert, i64 %.sroa.5.8.insert.insert, 1
  ret { i64, i64 } %.fca.1.insert
}